; Function Attrs: nounwind uwtable
define range(i32 -40, 1) i32 @IDAGetSens(ptr noundef captures(address_is_null) %0, ptr noundef captures(none) %1, ptr noundef readonly captures(address_is_null) %2) local_unnamed_addr #0 {
  %4 = icmp eq ptr %0, null
  br i1 %4, label %5, label %6

5:                                                ; preds = %3
  tail call void (ptr, i32, ptr, ptr, ptr, ...) @IDAProcessError(ptr noundef null, i32 noundef -20, ptr noundef nonnull @.str, ptr noundef nonnull @.str.79, ptr noundef nonnull @.str.4)
  br label %.loopexit

6:                                                ; preds = %3
  %7 = icmp eq ptr %2, null
  br i1 %7, label %8, label %9

8:                                                ; preds = %6
  tail call void (ptr, i32, ptr, ptr, ptr, ...) @IDAProcessError(ptr noundef nonnull %0, i32 noundef -27, ptr noundef nonnull @.str, ptr noundef nonnull @.str.79, ptr noundef nonnull @.str.74)
  br label %.loopexit

9:                                                ; preds = %6
  %10 = getelementptr inbounds nuw i8, ptr %0, i64 136
  %11 = load i32, ptr %10, align 8, !tbaa !37
  %12 = icmp eq i32 %11, 0
  br i1 %12, label %13, label %14

13:                                               ; preds = %9
  tail call void (ptr, i32, ptr, ptr, ptr, ...) @IDAProcessError(ptr noundef nonnull %0, i32 noundef -40, ptr noundef nonnull @.str, ptr noundef nonnull @.str.79, ptr noundef nonnull @.str.30)
  br label %.loopexit

14:                                               ; preds = %9
  %15 = getelementptr inbounds nuw i8, ptr %0, i64 1192
  %16 = load double, ptr %15, align 8, !tbaa !218
  store double %16, ptr %1, align 8, !tbaa !60
  %17 = getelementptr inbounds nuw i8, ptr %0, i64 140
  %18 = load i32, ptr %17, align 4, !tbaa !139
  %19 = icmp sgt i32 %18, 0
  br i1 %19, label %.lr.ph, label %.loopexit

20:                                               ; preds = %.lr.ph
  %indvars.iv.next = add nuw nsw i64 %indvars.iv, 1
  %21 = load i32, ptr %17, align 4, !tbaa !139
  %22 = sext i32 %21 to i64
  %23 = icmp slt i64 %indvars.iv.next, %22
  br i1 %23, label %.lr.ph, label %.loopexit, !llvm.loop !315

.lr.ph:                                           ; preds = %14, %20
  %indvars.iv = phi i64 [ %indvars.iv.next, %20 ], [ 0, %14 ]
  %24 = load double, ptr %1, align 8, !tbaa !60
  %25 = getelementptr inbounds nuw ptr, ptr %2, i64 %indvars.iv
  %26 = load ptr, ptr %25, align 8, !tbaa !57
  %27 = trunc nuw nsw i64 %indvars.iv to i32
  %28 = tail call i32 @IDAGetSensDky1(ptr noundef nonnull %0, double noundef %24, i32 noundef 0, i32 noundef %27, ptr noundef %26)
  %.not = icmp eq i32 %28, 0
  br i1 %.not, label %20, label %.loopexit

.loopexit:                                        ; preds = %.lr.ph, %20, %14, %13, %8, %5
  %.018 = phi i32 [ -20, %5 ], [ -27, %8 ], [ -40, %13 ], [ 0, %14 ], [ %28, %.lr.ph ], [ 0, %20 ]
  ret i32 %.018
}